; Function Attrs: nounwind uwtable
define hidden range(i64 -3, -9223372036854775808) i64 @_Py_dict_lookup_threadsafe_stackref(ptr noundef readonly captures(none) %0, ptr noundef %1, i64 noundef %2, ptr noundef writeonly captures(none) initializes((0, 8)) %3) local_unnamed_addr #0 {
  %5 = alloca ptr, align 8
  call void @llvm.lifetime.start.p0(i64 8, ptr nonnull %5) #23
  %6 = call i64 @_Py_dict_lookup(ptr noundef %0, ptr noundef %1, i64 noundef %2, ptr noundef nonnull %5)
  %7 = load ptr, ptr %5, align 8, !tbaa !64
  %8 = icmp eq ptr %7, null
  br i1 %8, label %15, label %9

9:                                                ; preds = %4
  %10 = load i32, ptr %7, align 8, !tbaa !41
  %11 = icmp slt i32 %10, 0
  br i1 %11, label %_Py_NewRef.exit, label %12

12:                                               ; preds = %9
  %13 = add nuw i32 %10, 1
  store i32 %13, ptr %7, align 8, !tbaa !41
  br label %_Py_NewRef.exit

_Py_NewRef.exit:                                  ; preds = %9, %12
  %14 = ptrtoint ptr %7 to i64
  br label %15

15:                                               ; preds = %4, %_Py_NewRef.exit
  %storemerge = phi i64 [ %14, %_Py_NewRef.exit ], [ 0, %4 ]
  store i64 %storemerge, ptr %3, align 8, !tbaa !41
  call void @llvm.lifetime.end.p0(i64 8, ptr nonnull %5) #23
  ret i64 %6
}